target datalayout = "e-m:e-p270:32:32-p271:32:32-p272:64:64-i64:64-i128:128-f80:128-n8:16:32:64-S128"
target triple = "x86_64-unknown-linux-gnu"

%struct.UStringSearch = type { ptr, %struct.UPattern, ptr, ptr, ptr, ptr, ptr, i8, i32, i32, i32, i8 }
%struct.UPattern = type { ptr, i32, i32, ptr, [256 x i32], i32, ptr, [256 x i64], i8, i8 }
%struct.USearch = type { ptr, i32, i8, i8, i16, ptr, ptr, i32, i32, i8, i8 }

; Function Attrs: mustprogress nounwind uwtable
define i32 @usearch_getMatchedStart_75(ptr noundef %strsrch) #1 {
entry:
  %retval = alloca i32, align 4
  %strsrch.addr = alloca ptr, align 8
  store ptr %strsrch, ptr %strsrch.addr, align 8
  %0 = load ptr, ptr %strsrch.addr, align 8
  %cmp = icmp eq ptr %0, null
  br i1 %cmp, label %if.then, label %if.end

if.then:                                          ; preds = %entry
  store i32 -1, ptr %retval, align 4
  br label %return

if.end:                                           ; preds = %entry
  %1 = load ptr, ptr %strsrch.addr, align 8
  %search = getelementptr inbounds %struct.UStringSearch, ptr %1, i32 0, i32 0
  %2 = load ptr, ptr %search, align 8
  %matchedIndex = getelementptr inbounds %struct.USearch, ptr %2, i32 0, i32 7
  %3 = load i32, ptr %matchedIndex, align 8
  store i32 %3, ptr %retval, align 4
  br label %return

return:                                           ; preds = %if.end, %if.then
  %4 = load i32, ptr %retval, align 4
  ret i32 %4
}