; Function Attrs: mustprogress nofree norecurse nosync nounwind willreturn memory(read, inaccessiblemem: none) uwtable
define i32 @usearch_getMatchedStart_75(ptr noundef readonly %strsrch) local_unnamed_addr #5 {
entry:
  %cmp = icmp eq ptr %strsrch, null
  br i1 %cmp, label %return, label %if.end

if.end:                                           ; preds = %entry
  %0 = load ptr, ptr %strsrch, align 8
  %matchedIndex = getelementptr inbounds i8, ptr %0, i64 32
  %1 = load i32, ptr %matchedIndex, align 8
  br label %return

return:                                           ; preds = %entry, %if.end
  %retval.0 = phi i32 [ %1, %if.end ], [ -1, %entry ]
  ret i32 %retval.0
}